; Function Attrs: nounwind uwtable
define internal noundef i32 @OnUpdateUnrollR(ptr nocapture noundef readonly %0, ptr noundef %1, ptr noundef %2, ptr nocapture noundef writeonly %3, ptr nocapture readnone %4, i32 %5) #0 {
  %7 = load ptr, ptr %0, align 8
  %8 = tail call i64 @zend_ini_parse_quantity_warn(ptr noundef %1, ptr noundef %7) #14
  %or.cond = icmp ult i64 %8, 4
  br i1 %or.cond, label %9, label %12

9:                                                ; preds = %6
  %10 = ptrtoint ptr %2 to i64
  %11 = getelementptr inbounds i8, ptr %3, i64 %10
  store i64 %8, ptr %11, align 8
  br label %15

12:                                               ; preds = %6
  %13 = load ptr, ptr %0, align 8
  %14 = getelementptr inbounds i8, ptr %13, i64 24
  tail call void (i32, ptr, ...) @zend_error(i32 noundef 2, ptr noundef nonnull @.str.178, ptr noundef nonnull %14, i32 noundef 4) #14
  br label %15

15:                                               ; preds = %12, %9
  %.0 = phi i32 [ 0, %9 ], [ -1, %12 ]
  ret i32 %.0
}